target datalayout = "e-m:e-p270:32:32-p271:32:32-p272:64:64-i64:64-i128:128-f80:128-n8:16:32:64-S128"
target triple = "x86_64-pc-linux-gnu"

%struct.ssl_hmac_st = type { ptr, ptr }
%struct.ossl_param_st = type { ptr, i32, ptr, i64, i64 }

@.str.19 = private unnamed_addr constant [7 x i8] c"digest\00", align 1

; Function Attrs: nounwind uwtable
define i32 @ssl_hmac_init(ptr noundef %0, ptr noundef %1, i64 noundef %2, ptr noundef %3) #1 {
  %5 = alloca i32, align 4
  %6 = alloca ptr, align 8
  %7 = alloca ptr, align 8
  %8 = alloca i64, align 8
  %9 = alloca ptr, align 8
  %10 = alloca [2 x %struct.ossl_param_st], align 16
  %11 = alloca ptr, align 8
  %12 = alloca %struct.ossl_param_st, align 8
  %13 = alloca %struct.ossl_param_st, align 8
  %14 = alloca i32, align 4
  store ptr %0, ptr %6, align 8, !tbaa !289
  store ptr %1, ptr %7, align 8, !tbaa !112
  store i64 %2, ptr %8, align 8, !tbaa !3
  store ptr %3, ptr %9, align 8, !tbaa !172
  call void @llvm.lifetime.start.p0(i64 80, ptr %10) #8
  call void @llvm.lifetime.start.p0(i64 8, ptr %11) #8
  %15 = getelementptr inbounds [2 x %struct.ossl_param_st], ptr %10, i64 0, i64 0
  store ptr %15, ptr %11, align 8, !tbaa !312
  %16 = load ptr, ptr %6, align 8, !tbaa !289
  %17 = getelementptr inbounds nuw %struct.ssl_hmac_st, ptr %16, i32 0, i32 0
  %18 = load ptr, ptr %17, align 8, !tbaa !308
  %19 = icmp ne ptr %18, null
  br i1 %19, label %20, label %35

20:                                               ; preds = %4
  %21 = load ptr, ptr %11, align 8, !tbaa !312
  %22 = getelementptr inbounds nuw %struct.ossl_param_st, ptr %21, i32 1
  store ptr %22, ptr %11, align 8, !tbaa !312
  call void @llvm.lifetime.start.p0(i64 40, ptr %12) #8
  %23 = load ptr, ptr %9, align 8, !tbaa !172
  call void @OSSL_PARAM_construct_utf8_string(ptr dead_on_unwind writable sret(%struct.ossl_param_st) align 8 %12, ptr noundef @.str.19, ptr noundef %23, i64 noundef 0)
  call void @llvm.memcpy.p0.p0.i64(ptr align 8 %21, ptr align 8 %12, i64 40, i1 false), !tbaa.struct !314
  call void @llvm.lifetime.end.p0(i64 40, ptr %12) #8
  %24 = load ptr, ptr %11, align 8, !tbaa !312
  call void @llvm.lifetime.start.p0(i64 40, ptr %13) #8
  call void @OSSL_PARAM_construct_end(ptr dead_on_unwind writable sret(%struct.ossl_param_st) align 8 %13)
  call void @llvm.memcpy.p0.p0.i64(ptr align 8 %24, ptr align 8 %13, i64 40, i1 false), !tbaa.struct !314
  call void @llvm.lifetime.end.p0(i64 40, ptr %13) #8
  %25 = load ptr, ptr %6, align 8, !tbaa !289
  %26 = getelementptr inbounds nuw %struct.ssl_hmac_st, ptr %25, i32 0, i32 0
  %27 = load ptr, ptr %26, align 8, !tbaa !308
  %28 = load ptr, ptr %7, align 8, !tbaa !112
  %29 = load i64, ptr %8, align 8, !tbaa !3
  %30 = getelementptr inbounds [2 x %struct.ossl_param_st], ptr %10, i64 0, i64 0
  %31 = call i32 @EVP_MAC_init(ptr noundef %27, ptr noundef %28, i64 noundef %29, ptr noundef %30)
  %32 = icmp ne i32 %31, 0
  br i1 %32, label %33, label %34

33:                                               ; preds = %20
  store i32 1, ptr %5, align 4
  store i32 1, ptr %14, align 4
  br label %47

34:                                               ; preds = %20
  br label %35

35:                                               ; preds = %34, %4
  %36 = load ptr, ptr %6, align 8, !tbaa !289
  %37 = getelementptr inbounds nuw %struct.ssl_hmac_st, ptr %36, i32 0, i32 1
  %38 = load ptr, ptr %37, align 8, !tbaa !315
  %39 = icmp ne ptr %38, null
  br i1 %39, label %40, label %46

40:                                               ; preds = %35
  %41 = load ptr, ptr %6, align 8, !tbaa !289
  %42 = load ptr, ptr %7, align 8, !tbaa !112
  %43 = load i64, ptr %8, align 8, !tbaa !3
  %44 = load ptr, ptr %9, align 8, !tbaa !172
  %45 = call i32 @ssl_hmac_old_init(ptr noundef %41, ptr noundef %42, i64 noundef %43, ptr noundef %44)
  store i32 %45, ptr %5, align 4
  store i32 1, ptr %14, align 4
  br label %47

46:                                               ; preds = %35
  store i32 0, ptr %5, align 4
  store i32 1, ptr %14, align 4
  br label %47

47:                                               ; preds = %46, %40, %33
  call void @llvm.lifetime.end.p0(i64 8, ptr %11) #8
  call void @llvm.lifetime.end.p0(i64 80, ptr %10) #8
  %48 = load i32, ptr %5, align 4
  ret i32 %48
}