; Function Attrs: nounwind uwtable
define i32 @ssl_hmac_init(ptr noundef %0, ptr noundef %1, i64 noundef %2, ptr noundef %3) local_unnamed_addr #2 {
  %5 = alloca [2 x %struct.ossl_param_st], align 16
  %6 = alloca %struct.ossl_param_st, align 8
  call void @llvm.lifetime.start.p0(i64 80, ptr nonnull %5) #14
  %7 = load ptr, ptr %0, align 8, !tbaa !257
  %.not = icmp eq ptr %7, null
  br i1 %.not, label %12, label %8

8:                                                ; preds = %4
  %9 = getelementptr inbounds nuw i8, ptr %5, i64 40
  call void @OSSL_PARAM_construct_utf8_string(ptr dead_on_unwind nonnull writable sret(%struct.ossl_param_st) align 8 %5, ptr noundef nonnull @.str.19, ptr noundef %3, i64 noundef 0) #14
  call void @llvm.lifetime.start.p0(i64 40, ptr nonnull %6) #14
  call void @OSSL_PARAM_construct_end(ptr dead_on_unwind nonnull writable sret(%struct.ossl_param_st) align 8 %6) #14
  call void @llvm.memcpy.p0.p0.i64(ptr noundef nonnull align 8 dereferenceable(40) %9, ptr noundef nonnull align 8 dereferenceable(40) %6, i64 40, i1 false), !tbaa.struct !268
  call void @llvm.lifetime.end.p0(i64 40, ptr nonnull %6) #14
  %10 = load ptr, ptr %0, align 8, !tbaa !257
  %11 = call i32 @EVP_MAC_init(ptr noundef %10, ptr noundef %1, i64 noundef %2, ptr noundef nonnull %5) #14
  %.not12 = icmp eq i32 %11, 0
  br i1 %.not12, label %12, label %17

12:                                               ; preds = %8, %4
  %13 = getelementptr inbounds nuw i8, ptr %0, i64 8
  %14 = load ptr, ptr %13, align 8, !tbaa !262
  %.not13 = icmp eq ptr %14, null
  br i1 %.not13, label %17, label %15

15:                                               ; preds = %12
  %16 = call i32 @ssl_hmac_old_init(ptr noundef nonnull %0, ptr noundef %1, i64 noundef %2, ptr noundef %3) #14
  br label %17

17:                                               ; preds = %12, %8, %15
  %.0 = phi i32 [ %16, %15 ], [ 1, %8 ], [ 0, %12 ]
  call void @llvm.lifetime.end.p0(i64 80, ptr nonnull %5) #14
  ret i32 %.0
}